; Function Attrs: nounwind uwtable
define internal i32 @drsuapi_dissect_element_DsGetNCChanges_req_(ptr noundef %0, i32 noundef %1, ptr noundef %2, ptr noundef %3, ptr noundef %4, ptr noundef %5) #0 {
  %7 = alloca ptr, align 8
  %8 = alloca i32, align 4
  %9 = load i32, ptr @hf_drsuapi_drsuapi_DsGetNCChanges_req, align 4
  call void @llvm.lifetime.start.p0(i64 8, ptr nonnull %7)
  call void @llvm.lifetime.start.p0(i64 4, ptr nonnull %8)
  store ptr null, ptr %7, align 8
  %.not.i = icmp eq ptr %3, null
  br i1 %.not.i, label %13, label %10

10:                                               ; preds = %6
  %11 = load i32, ptr @ett_drsuapi_drsuapi_DsGetNCChangesRequest, align 4
  %12 = call ptr @proto_tree_add_subtree(ptr noundef nonnull %3, ptr noundef %0, i32 noundef %1, i32 noundef -1, i32 noundef %11, ptr noundef nonnull %7, ptr noundef nonnull @.str.1736) #5
  br label %13

13:                                               ; preds = %10, %6
  %.035.i = phi ptr [ %12, %10 ], [ null, %6 ]
  %14 = call i32 @dissect_ndr_uint32(ptr noundef %0, i32 noundef %1, ptr noundef %2, ptr noundef %.035.i, ptr noundef %4, ptr noundef %5, i32 noundef %9, ptr noundef nonnull %8) #5
  %15 = getelementptr inbounds nuw i8, ptr %4, i64 28
  %16 = load i32, ptr %15, align 4
  %.not37.i = icmp ne i32 %16, 0
  %17 = and i32 %14, 7
  %.not38.i = icmp eq i32 %17, 0
  %or.cond.i = select i1 %.not37.i, i1 true, i1 %.not38.i
  %18 = and i32 %14, -8
  %19 = add i32 %18, 8
  %.0.i = select i1 %or.cond.i, i32 %14, i32 %19
  %20 = load i32, ptr %8, align 4
  switch i32 %20, label %drsuapi_dissect_DsGetNCChangesRequest.exit [
    i32 5, label %21
    i32 8, label %24
    i32 10, label %27
  ]

21:                                               ; preds = %13
  %22 = load i32, ptr @hf_drsuapi_drsuapi_DsGetNCChangesRequest_req5, align 4
  %23 = call i32 @drsuapi_dissect_struct_DsGetNCChangesRequest5(ptr noundef %0, i32 noundef %.0.i, ptr noundef %2, ptr noundef %.035.i, ptr noundef nonnull %4, ptr noundef %5, i32 noundef %22, i32 poison)
  br label %drsuapi_dissect_DsGetNCChangesRequest.exit

24:                                               ; preds = %13
  %25 = load i32, ptr @hf_drsuapi_drsuapi_DsGetNCChangesRequest_req8, align 4
  %26 = call i32 @drsuapi_dissect_struct_DsGetNCChangesRequest8(ptr noundef %0, i32 noundef %.0.i, ptr noundef %2, ptr noundef %.035.i, ptr noundef nonnull %4, ptr noundef %5, i32 noundef %25, i32 poison)
  br label %drsuapi_dissect_DsGetNCChangesRequest.exit

27:                                               ; preds = %13
  %28 = load i32, ptr @hf_drsuapi_drsuapi_DsGetNCChangesRequest_req10, align 4
  %29 = call i32 @drsuapi_dissect_struct_DsGetNCChangesRequest10(ptr noundef %0, i32 noundef %.0.i, ptr noundef %2, ptr noundef %.035.i, ptr noundef nonnull %4, ptr noundef %5, i32 noundef %28, i32 poison)
  br label %drsuapi_dissect_DsGetNCChangesRequest.exit

drsuapi_dissect_DsGetNCChangesRequest.exit:       ; preds = %13, %21, %24, %27
  %.1.i = phi i32 [ %.0.i, %13 ], [ %29, %27 ], [ %26, %24 ], [ %23, %21 ]
  %30 = load ptr, ptr %7, align 8
  %31 = sub i32 %.1.i, %1
  call void @proto_item_set_len(ptr noundef %30, i32 noundef %31) #5
  call void @llvm.lifetime.end.p0(i64 8, ptr nonnull %7)
  call void @llvm.lifetime.end.p0(i64 4, ptr nonnull %8)
  ret i32 %.1.i
}